target datalayout = "e-m:e-p270:32:32-p271:32:32-p272:64:64-i64:64-i128:128-f80:128-n8:16:32:64-S128"
target triple = "x86_64-pc-linux-gnu"

%"class.cvc5::internal::theory::arith::linear::NodeLog" = type { i32, ptr, ptr, %"class.std::set", %"class.std::map", i32, i32, double, i32, i32, %"class.std::unordered_map" }
%"class.std::set" = type { %"class.std::_Rb_tree" }
%"class.std::_Rb_tree" = type { %"struct.std::_Rb_tree<cvc5::internal::theory::arith::linear::CutInfo *, cvc5::internal::theory::arith::linear::CutInfo *, std::_Identity<cvc5::internal::theory::arith::linear::CutInfo *>, cvc5::internal::theory::arith::linear::NodeLog::CmpCutPointer>::_Rb_tree_impl" }
%"struct.std::_Rb_tree<cvc5::internal::theory::arith::linear::CutInfo *, cvc5::internal::theory::arith::linear::CutInfo *, std::_Identity<cvc5::internal::theory::arith::linear::CutInfo *>, cvc5::internal::theory::arith::linear::NodeLog::CmpCutPointer>::_Rb_tree_impl" = type { [8 x i8], %"struct.std::_Rb_tree_header" }
%"struct.std::_Rb_tree_header" = type { %"struct.std::_Rb_tree_node_base", i64 }
%"struct.std::_Rb_tree_node_base" = type { i32, ptr, ptr, ptr }
%"class.std::map" = type { %"class.std::_Rb_tree.0" }
%"class.std::_Rb_tree.0" = type { %"struct.std::_Rb_tree<int, std::pair<const int, int>, std::_Select1st<std::pair<const int, int>>, std::less<int>>::_Rb_tree_impl" }
%"struct.std::_Rb_tree<int, std::pair<const int, int>, std::_Select1st<std::pair<const int, int>>, std::less<int>>::_Rb_tree_impl" = type { [8 x i8], %"struct.std::_Rb_tree_header" }
%"class.std::unordered_map" = type { %"class.std::_Hashtable" }
%"class.std::_Hashtable" = type { ptr, i64, %"struct.std::__detail::_Hash_node_base", i64, %"struct.std::__detail::_Prime_rehash_policy", ptr }
%"struct.std::__detail::_Hash_node_base" = type { ptr }
%"struct.std::__detail::_Prime_rehash_policy" = type { float, i64 }

; Function Attrs: mustprogress nounwind uwtable
define hidden void @_ZN4cvc58internal6theory5arith6linear7NodeLog9setBranchEidii(ptr noundef nonnull align 8 dereferenceable(200) %0, i32 noundef %1, double noundef %2, i32 noundef %3, i32 noundef %4) #4 align 2 {
  %6 = alloca ptr, align 8
  %7 = alloca i32, align 4
  %8 = alloca double, align 8
  %9 = alloca i32, align 4
  %10 = alloca i32, align 4
  store ptr %0, ptr %6, align 8, !tbaa !3
  store i32 %1, ptr %7, align 4, !tbaa !12
  store double %2, ptr %8, align 8, !tbaa !53
  store i32 %3, ptr %9, align 4, !tbaa !12
  store i32 %4, ptr %10, align 4, !tbaa !12
  %11 = load ptr, ptr %6, align 8
  %12 = load i32, ptr %7, align 4, !tbaa !12
  %13 = getelementptr inbounds nuw %"class.cvc5::internal::theory::arith::linear::NodeLog", ptr %11, i32 0, i32 6
  store i32 %12, ptr %13, align 4, !tbaa !112
  %14 = load double, ptr %8, align 8, !tbaa !53
  %15 = getelementptr inbounds nuw %"class.cvc5::internal::theory::arith::linear::NodeLog", ptr %11, i32 0, i32 7
  store double %14, ptr %15, align 8, !tbaa !134
  %16 = load i32, ptr %9, align 4, !tbaa !12
  %17 = getelementptr inbounds nuw %"class.cvc5::internal::theory::arith::linear::NodeLog", ptr %11, i32 0, i32 8
  store i32 %16, ptr %17, align 8, !tbaa !135
  %18 = load i32, ptr %10, align 4, !tbaa !12
  %19 = getelementptr inbounds nuw %"class.cvc5::internal::theory::arith::linear::NodeLog", ptr %11, i32 0, i32 9
  store i32 %18, ptr %19, align 4, !tbaa !136
  %20 = getelementptr inbounds nuw %"class.cvc5::internal::theory::arith::linear::NodeLog", ptr %11, i32 0, i32 5
  store i32 2, ptr %20, align 8, !tbaa !133
  ret void
}