; Function Attrs: mustprogress nofree norecurse nosync nounwind willreturn memory(argmem: write) uwtable
define hidden void @_ZN4cvc58internal6theory5arith6linear7NodeLog9setBranchEidii(ptr noundef nonnull writeonly align 8 captures(none) dereferenceable(200) initializes((120, 144)) %0, i32 noundef %1, double noundef %2, i32 noundef %3, i32 noundef %4) local_unnamed_addr #8 align 2 {
  %6 = getelementptr inbounds nuw i8, ptr %0, i64 124
  store i32 %1, ptr %6, align 4, !tbaa !101
  %7 = getelementptr inbounds nuw i8, ptr %0, i64 128
  store double %2, ptr %7, align 8, !tbaa !125
  %8 = getelementptr inbounds nuw i8, ptr %0, i64 136
  store i32 %3, ptr %8, align 8, !tbaa !126
  %9 = getelementptr inbounds nuw i8, ptr %0, i64 140
  store i32 %4, ptr %9, align 4, !tbaa !127
  %10 = getelementptr inbounds nuw i8, ptr %0, i64 120
  store i32 2, ptr %10, align 8, !tbaa !124
  ret void
}